target datalayout = "e-m:e-p270:32:32-p271:32:32-p272:64:64-i64:64-i128:128-f80:128-n8:16:32:64-S128"
target triple = "x86_64-pc-linux-gnu"

%struct._zval_struct = type { %union._zend_value, %union.anon, %union.anon.2 }
%union._zend_value = type { i64 }
%union.anon = type { i32 }
%union.anon.2 = type { i32 }
%struct._phar_mime_type = type { ptr, i32, i8 }

@.str.210 = private unnamed_addr constant [11 x i8] c"text/plain\00", align 1
@.str.211 = private unnamed_addr constant [25 x i8] c"application/octet-stream\00", align 1

; Function Attrs: alwaysinline nounwind uwtable
define internal ptr @zend_hash_str_find_ptr(ptr noundef %0, ptr noundef %1, i64 noundef %2) #4 {
  %4 = alloca ptr, align 8
  %5 = alloca ptr, align 8
  %6 = alloca ptr, align 8
  %7 = alloca i64, align 8
  %8 = alloca ptr, align 8
  %9 = alloca i32, align 4
  store ptr %0, ptr %5, align 8, !tbaa !59
  store ptr %1, ptr %6, align 8, !tbaa !49
  store i64 %2, ptr %7, align 8, !tbaa !52
  call void @llvm.lifetime.start.p0(i64 8, ptr %8) #17
  %10 = load ptr, ptr %5, align 8, !tbaa !59
  %11 = load ptr, ptr %6, align 8, !tbaa !49
  %12 = load i64, ptr %7, align 8, !tbaa !52
  %13 = call ptr @zend_hash_str_find(ptr noundef %10, ptr noundef %11, i64 noundef %12)
  store ptr %13, ptr %8, align 8, !tbaa !9
  %14 = load ptr, ptr %8, align 8, !tbaa !9
  %15 = icmp ne ptr %14, null
  br i1 %15, label %16, label %24

16:                                               ; preds = %3
  %17 = load ptr, ptr %8, align 8, !tbaa !9
  %18 = getelementptr inbounds nuw %struct._zval_struct, ptr %17, i32 0, i32 0
  %19 = load ptr, ptr %18, align 8, !tbaa !13
  %20 = icmp ne ptr %19, null
  call void @llvm.assume(i1 %20)
  %21 = load ptr, ptr %8, align 8, !tbaa !9
  %22 = getelementptr inbounds nuw %struct._zval_struct, ptr %21, i32 0, i32 0
  %23 = load ptr, ptr %22, align 8, !tbaa !13
  store ptr %23, ptr %4, align 8
  store i32 1, ptr %9, align 4
  br label %25

24:                                               ; preds = %3
  store ptr null, ptr %4, align 8
  store i32 1, ptr %9, align 4
  br label %25

25:                                               ; preds = %24, %16
  call void @llvm.lifetime.end.p0(i64 8, ptr %8) #17
  %26 = load ptr, ptr %4, align 8
  ret ptr %26
}

; Function Attrs: nounwind uwtable
define internal i32 @phar_file_type(ptr noundef %0, ptr noundef %1, ptr noundef %2) #0 {
  %4 = alloca i32, align 4
  %5 = alloca ptr, align 8
  %6 = alloca ptr, align 8
  %7 = alloca ptr, align 8
  %8 = alloca ptr, align 8
  %9 = alloca ptr, align 8
  %10 = alloca i32, align 4
  store ptr %0, ptr %5, align 8, !tbaa !59
  store ptr %1, ptr %6, align 8, !tbaa !49
  store ptr %2, ptr %7, align 8, !tbaa !92
  call void @llvm.lifetime.start.p0(i64 8, ptr %8) #17
  call void @llvm.lifetime.start.p0(i64 8, ptr %9) #17
  %11 = load ptr, ptr %6, align 8, !tbaa !49
  %12 = call ptr @strrchr(ptr noundef %11, i32 noundef 46) #18
  store ptr %12, ptr %8, align 8, !tbaa !49
  %13 = load ptr, ptr %8, align 8, !tbaa !49
  %14 = icmp ne ptr %13, null
  br i1 %14, label %17, label %15

15:                                               ; preds = %3
  %16 = load ptr, ptr %7, align 8, !tbaa !92
  store ptr @.str.210, ptr %16, align 8, !tbaa !49
  store i32 2, ptr %4, align 4
  store i32 1, ptr %10, align 4
  br label %37

17:                                               ; preds = %3
  %18 = load ptr, ptr %8, align 8, !tbaa !49
  %19 = getelementptr inbounds nuw i8, ptr %18, i32 1
  store ptr %19, ptr %8, align 8, !tbaa !49
  %20 = load ptr, ptr %5, align 8, !tbaa !59
  %21 = load ptr, ptr %8, align 8, !tbaa !49
  %22 = load ptr, ptr %8, align 8, !tbaa !49
  %23 = call i64 @strlen(ptr noundef %22) #18
  %24 = call ptr @zend_hash_str_find_ptr(ptr noundef %20, ptr noundef %21, i64 noundef %23)
  store ptr %24, ptr %9, align 8, !tbaa !96
  %25 = icmp eq ptr null, %24
  br i1 %25, label %26, label %28

26:                                               ; preds = %17
  %27 = load ptr, ptr %7, align 8, !tbaa !92
  store ptr @.str.211, ptr %27, align 8, !tbaa !49
  store i32 2, ptr %4, align 4
  store i32 1, ptr %10, align 4
  br label %37

28:                                               ; preds = %17
  %29 = load ptr, ptr %9, align 8, !tbaa !96
  %30 = getelementptr inbounds nuw %struct._phar_mime_type, ptr %29, i32 0, i32 0
  %31 = load ptr, ptr %30, align 8, !tbaa !98
  %32 = load ptr, ptr %7, align 8, !tbaa !92
  store ptr %31, ptr %32, align 8, !tbaa !49
  %33 = load ptr, ptr %9, align 8, !tbaa !96
  %34 = getelementptr inbounds nuw %struct._phar_mime_type, ptr %33, i32 0, i32 2
  %35 = load i8, ptr %34, align 4, !tbaa !100
  %36 = sext i8 %35 to i32
  store i32 %36, ptr %4, align 4
  store i32 1, ptr %10, align 4
  br label %37

37:                                               ; preds = %28, %26, %15
  call void @llvm.lifetime.end.p0(i64 8, ptr %9) #17
  call void @llvm.lifetime.end.p0(i64 8, ptr %8) #17
  %38 = load i32, ptr %4, align 4
  ret i32 %38
}