; Function Attrs: nounwind uwtable
define internal fastcc range(i32 -128, 128) i32 @phar_file_type(ptr noundef %0, ptr noundef nonnull writeonly captures(none) initializes((0, 8)) %1) unnamed_addr #0 {
  %3 = tail call ptr @strrchr(ptr noundef nonnull dereferenceable(1) %0, i32 noundef 46) #21
  %.not = icmp eq ptr %3, null
  br i1 %.not, label %4, label %5

4:                                                ; preds = %2
  store ptr @.str.210, ptr %1, align 8, !tbaa !47
  br label %16

5:                                                ; preds = %2
  %6 = getelementptr inbounds nuw i8, ptr %3, i64 1
  %7 = tail call i64 @strlen(ptr noundef nonnull dereferenceable(1) %6) #21
  %8 = tail call ptr @zend_hash_str_find(ptr noundef nonnull getelementptr inbounds nuw (i8, ptr @phar_globals, i64 456), ptr noundef nonnull %6, i64 noundef %7) #20
  %.not.i = icmp eq ptr %8, null
  br i1 %.not.i, label %9, label %10

9:                                                ; preds = %5
  store ptr @.str.211, ptr %1, align 8, !tbaa !47
  br label %16

10:                                               ; preds = %5
  %11 = load ptr, ptr %8, align 8, !tbaa !8, !nonnull !49, !noundef !49
  %12 = load ptr, ptr %11, align 8, !tbaa !90
  store ptr %12, ptr %1, align 8, !tbaa !47
  %13 = getelementptr inbounds nuw i8, ptr %11, i64 12
  %14 = load i8, ptr %13, align 4, !tbaa !92
  %15 = sext i8 %14 to i32
  br label %16

16:                                               ; preds = %10, %9, %4
  %.0 = phi i32 [ 2, %9 ], [ %15, %10 ], [ 2, %4 ]
  ret i32 %.0
}